; Function Attrs: mustprogress nofree norecurse nosync nounwind willreturn memory(argmem: write) uwtable
define dso_local void @_ZN4llvm5dwarf14UnwindLocation26createAtRegisterPlusOffsetEjiSt8optionalIjE(ptr dead_on_unwind noalias writable writeonly sret(%"class.llvm::dwarf::UnwindLocation") align 8 captures(none) initializes((0, 20), (56, 57), (64, 65)) %0, i32 noundef %1, i32 noundef %2, i64 %3) local_unnamed_addr #0 align 2 {
  store i32 4, ptr %0, align 8
  %5 = getelementptr inbounds nuw i8, ptr %0, i64 4
  store i32 %1, ptr %5, align 4
  %6 = getelementptr inbounds nuw i8, ptr %0, i64 8
  store i32 %2, ptr %6, align 8
  %7 = getelementptr inbounds nuw i8, ptr %0, i64 12
  store i64 %3, ptr %7, align 4
  %8 = getelementptr inbounds nuw i8, ptr %0, i64 56
  store i8 0, ptr %8, align 8
  %9 = getelementptr inbounds nuw i8, ptr %0, i64 64
  store i8 1, ptr %9, align 8
  ret void
}